; Function Attrs: mustprogress uwtable
define void @grpc_slice_malloc(ptr dead_on_unwind noalias writable writeonly sret(%struct.grpc_slice) align 8 captures(none) initializes((0, 9)) %0, i64 noundef %1) local_unnamed_addr #3 {
  %3 = icmp ult i64 %1, 24
  br i1 %3, label %4, label %7

4:                                                ; preds = %2
  %5 = trunc nuw nsw i64 %1 to i8
  %6 = getelementptr inbounds nuw i8, ptr %0, i64 8
  store i8 %5, ptr %6, align 8, !tbaa !9
  br label %14

7:                                                ; preds = %2
  tail call void @llvm.experimental.noalias.scope.decl(metadata !26)
  %8 = add i64 %1, 16
  %9 = tail call noalias noundef nonnull ptr @_Znam(i64 noundef %8) #28, !noalias !26
  store i64 1, ptr %9, align 8, !tbaa !20, !noalias !26
  %10 = getelementptr inbounds nuw i8, ptr %9, i64 8
  store ptr @"_ZZ23grpc_slice_malloc_largeEN3$_08__invokeEP19grpc_slice_refcount", ptr %10, align 8, !tbaa !23, !noalias !26
  %11 = getelementptr inbounds nuw i8, ptr %9, i64 16
  %12 = getelementptr inbounds nuw i8, ptr %0, i64 8
  %13 = getelementptr inbounds nuw i8, ptr %0, i64 16
  store ptr %11, ptr %13, align 8, !tbaa !9, !alias.scope !26
  store i64 %1, ptr %12, align 8, !tbaa !9, !alias.scope !26
  br label %14

14:                                               ; preds = %7, %4
  %.sink = phi ptr [ null, %4 ], [ %9, %7 ]
  store ptr %.sink, ptr %0, align 8, !tbaa !3
  ret void
}